target datalayout = "e-m:e-p270:32:32-p271:32:32-p272:64:64-i64:64-i128:128-f80:128-n8:16:32:64-S128"
target triple = "x86_64-pc-linux-gnu"

%struct.Emb_Man_t_ = type { ptr, ptr, ptr, i32, i32, i32, ptr, i32, i32, ptr, i32, i32, ptr, ptr, ptr, ptr }
%struct.Vec_Int_t_ = type { i32, i32, ptr }

; Function Attrs: inlinehint nounwind uwtable
define internal void @Vec_IntFree(ptr noundef %0) #4 {
  %2 = alloca ptr, align 8
  store ptr %0, ptr %2, align 8, !tbaa !62
  %3 = load ptr, ptr %2, align 8, !tbaa !62
  %4 = getelementptr inbounds nuw %struct.Vec_Int_t_, ptr %3, i32 0, i32 2
  %5 = load ptr, ptr %4, align 8, !tbaa !65
  %6 = icmp ne ptr %5, null
  br i1 %6, label %7, label %13

7:                                                ; preds = %1
  %8 = load ptr, ptr %2, align 8, !tbaa !62
  %9 = getelementptr inbounds nuw %struct.Vec_Int_t_, ptr %8, i32 0, i32 2
  %10 = load ptr, ptr %9, align 8, !tbaa !65
  call void @free(ptr noundef %10) #12
  %11 = load ptr, ptr %2, align 8, !tbaa !62
  %12 = getelementptr inbounds nuw %struct.Vec_Int_t_, ptr %11, i32 0, i32 2
  store ptr null, ptr %12, align 8, !tbaa !65
  br label %14

13:                                               ; preds = %1
  br label %14

14:                                               ; preds = %13, %7
  %15 = load ptr, ptr %2, align 8, !tbaa !62
  %16 = icmp ne ptr %15, null
  br i1 %16, label %17, label %19

17:                                               ; preds = %14
  %18 = load ptr, ptr %2, align 8, !tbaa !62
  call void @free(ptr noundef %18) #12
  store ptr null, ptr %2, align 8, !tbaa !62
  br label %20

19:                                               ; preds = %14
  br label %20

20:                                               ; preds = %19, %17
  ret void
}

; Function Attrs: nounwind uwtable
define void @Emb_ManStop(ptr noundef %0) #0 {
  %2 = alloca ptr, align 8
  store ptr %0, ptr %2, align 8, !tbaa !15
  %3 = load ptr, ptr %2, align 8, !tbaa !15
  %4 = getelementptr inbounds nuw %struct.Emb_Man_t_, ptr %3, i32 0, i32 1
  %5 = load ptr, ptr %4, align 8, !tbaa !25
  call void @Vec_IntFree(ptr noundef %5)
  %6 = load ptr, ptr %2, align 8, !tbaa !15
  %7 = getelementptr inbounds nuw %struct.Emb_Man_t_, ptr %6, i32 0, i32 2
  %8 = load ptr, ptr %7, align 8, !tbaa !26
  call void @Vec_IntFree(ptr noundef %8)
  %9 = load ptr, ptr %2, align 8, !tbaa !15
  %10 = getelementptr inbounds nuw %struct.Emb_Man_t_, ptr %9, i32 0, i32 15
  %11 = load ptr, ptr %10, align 8, !tbaa !86
  %12 = icmp ne ptr %11, null
  br i1 %12, label %13, label %19

13:                                               ; preds = %1
  %14 = load ptr, ptr %2, align 8, !tbaa !15
  %15 = getelementptr inbounds nuw %struct.Emb_Man_t_, ptr %14, i32 0, i32 15
  %16 = load ptr, ptr %15, align 8, !tbaa !86
  call void @free(ptr noundef %16) #12
  %17 = load ptr, ptr %2, align 8, !tbaa !15
  %18 = getelementptr inbounds nuw %struct.Emb_Man_t_, ptr %17, i32 0, i32 15
  store ptr null, ptr %18, align 8, !tbaa !86
  br label %20

19:                                               ; preds = %1
  br label %20

20:                                               ; preds = %19, %13
  %21 = load ptr, ptr %2, align 8, !tbaa !15
  %22 = getelementptr inbounds nuw %struct.Emb_Man_t_, ptr %21, i32 0, i32 9
  %23 = load ptr, ptr %22, align 8, !tbaa !87
  %24 = icmp ne ptr %23, null
  br i1 %24, label %25, label %31

25:                                               ; preds = %20
  %26 = load ptr, ptr %2, align 8, !tbaa !15
  %27 = getelementptr inbounds nuw %struct.Emb_Man_t_, ptr %26, i32 0, i32 9
  %28 = load ptr, ptr %27, align 8, !tbaa !87
  call void @free(ptr noundef %28) #12
  %29 = load ptr, ptr %2, align 8, !tbaa !15
  %30 = getelementptr inbounds nuw %struct.Emb_Man_t_, ptr %29, i32 0, i32 9
  store ptr null, ptr %30, align 8, !tbaa !87
  br label %32

31:                                               ; preds = %20
  br label %32

32:                                               ; preds = %31, %25
  %33 = load ptr, ptr %2, align 8, !tbaa !15
  %34 = getelementptr inbounds nuw %struct.Emb_Man_t_, ptr %33, i32 0, i32 14
  %35 = load ptr, ptr %34, align 8, !tbaa !88
  %36 = icmp ne ptr %35, null
  br i1 %36, label %37, label %43

37:                                               ; preds = %32
  %38 = load ptr, ptr %2, align 8, !tbaa !15
  %39 = getelementptr inbounds nuw %struct.Emb_Man_t_, ptr %38, i32 0, i32 14
  %40 = load ptr, ptr %39, align 8, !tbaa !88
  call void @free(ptr noundef %40) #12
  %41 = load ptr, ptr %2, align 8, !tbaa !15
  %42 = getelementptr inbounds nuw %struct.Emb_Man_t_, ptr %41, i32 0, i32 14
  store ptr null, ptr %42, align 8, !tbaa !88
  br label %44

43:                                               ; preds = %32
  br label %44

44:                                               ; preds = %43, %37
  %45 = load ptr, ptr %2, align 8, !tbaa !15
  %46 = getelementptr inbounds nuw %struct.Emb_Man_t_, ptr %45, i32 0, i32 12
  %47 = load ptr, ptr %46, align 8, !tbaa !89
  %48 = icmp ne ptr %47, null
  br i1 %48, label %49, label %55

49:                                               ; preds = %44
  %50 = load ptr, ptr %2, align 8, !tbaa !15
  %51 = getelementptr inbounds nuw %struct.Emb_Man_t_, ptr %50, i32 0, i32 12
  %52 = load ptr, ptr %51, align 8, !tbaa !89
  call void @free(ptr noundef %52) #12
  %53 = load ptr, ptr %2, align 8, !tbaa !15
  %54 = getelementptr inbounds nuw %struct.Emb_Man_t_, ptr %53, i32 0, i32 12
  store ptr null, ptr %54, align 8, !tbaa !89
  br label %56

55:                                               ; preds = %44
  br label %56

56:                                               ; preds = %55, %49
  %57 = load ptr, ptr %2, align 8, !tbaa !15
  %58 = getelementptr inbounds nuw %struct.Emb_Man_t_, ptr %57, i32 0, i32 13
  %59 = load ptr, ptr %58, align 8, !tbaa !90
  %60 = icmp ne ptr %59, null
  br i1 %60, label %61, label %67

61:                                               ; preds = %56
  %62 = load ptr, ptr %2, align 8, !tbaa !15
  %63 = getelementptr inbounds nuw %struct.Emb_Man_t_, ptr %62, i32 0, i32 13
  %64 = load ptr, ptr %63, align 8, !tbaa !90
  call void @free(ptr noundef %64) #12
  %65 = load ptr, ptr %2, align 8, !tbaa !15
  %66 = getelementptr inbounds nuw %struct.Emb_Man_t_, ptr %65, i32 0, i32 13
  store ptr null, ptr %66, align 8, !tbaa !90
  br label %68

67:                                               ; preds = %56
  br label %68

68:                                               ; preds = %67, %61
  %69 = load ptr, ptr %2, align 8, !tbaa !15
  %70 = getelementptr inbounds nuw %struct.Emb_Man_t_, ptr %69, i32 0, i32 6
  %71 = load ptr, ptr %70, align 8, !tbaa !28
  %72 = icmp ne ptr %71, null
  br i1 %72, label %73, label %79

73:                                               ; preds = %68
  %74 = load ptr, ptr %2, align 8, !tbaa !15
  %75 = getelementptr inbounds nuw %struct.Emb_Man_t_, ptr %74, i32 0, i32 6
  %76 = load ptr, ptr %75, align 8, !tbaa !28
  call void @free(ptr noundef %76) #12
  %77 = load ptr, ptr %2, align 8, !tbaa !15
  %78 = getelementptr inbounds nuw %struct.Emb_Man_t_, ptr %77, i32 0, i32 6
  store ptr null, ptr %78, align 8, !tbaa !28
  br label %80

79:                                               ; preds = %68
  br label %80

80:                                               ; preds = %79, %73
  %81 = load ptr, ptr %2, align 8, !tbaa !15
  %82 = icmp ne ptr %81, null
  br i1 %82, label %83, label %85

83:                                               ; preds = %80
  %84 = load ptr, ptr %2, align 8, !tbaa !15
  call void @free(ptr noundef %84) #12
  store ptr null, ptr %2, align 8, !tbaa !15
  br label %86

85:                                               ; preds = %80
  br label %86

86:                                               ; preds = %85, %83
  ret void
}