; Function Attrs: mustprogress nounwind willreturn uwtable
define void @Emb_ManStop(ptr noundef captures(none) %0) local_unnamed_addr #9 {
  %2 = getelementptr inbounds nuw i8, ptr %0, i64 8
  %3 = load ptr, ptr %2, align 8, !tbaa !42
  %4 = getelementptr inbounds nuw i8, ptr %3, i64 8
  %5 = load ptr, ptr %4, align 8, !tbaa !41
  %.not.i = icmp eq ptr %5, null
  br i1 %.not.i, label %Vec_IntFree.exit, label %6

6:                                                ; preds = %1
  tail call void @free(ptr noundef nonnull %5) #27
  br label %Vec_IntFree.exit

Vec_IntFree.exit:                                 ; preds = %1, %6
  tail call void @free(ptr noundef nonnull %3) #27
  %7 = getelementptr inbounds nuw i8, ptr %0, i64 16
  %8 = load ptr, ptr %7, align 8, !tbaa !44
  %9 = getelementptr inbounds nuw i8, ptr %8, i64 8
  %10 = load ptr, ptr %9, align 8, !tbaa !41
  %.not.i34 = icmp eq ptr %10, null
  br i1 %.not.i34, label %Vec_IntFree.exit35, label %11

11:                                               ; preds = %Vec_IntFree.exit
  tail call void @free(ptr noundef nonnull %10) #27
  br label %Vec_IntFree.exit35

Vec_IntFree.exit35:                               ; preds = %Vec_IntFree.exit, %11
  tail call void @free(ptr noundef nonnull %8) #27
  %12 = getelementptr inbounds nuw i8, ptr %0, i64 96
  %13 = load ptr, ptr %12, align 8, !tbaa !78
  %.not = icmp eq ptr %13, null
  br i1 %.not, label %15, label %14

14:                                               ; preds = %Vec_IntFree.exit35
  tail call void @free(ptr noundef nonnull %13) #27
  store ptr null, ptr %12, align 8, !tbaa !78
  br label %15

15:                                               ; preds = %Vec_IntFree.exit35, %14
  %16 = getelementptr inbounds nuw i8, ptr %0, i64 56
  %17 = load ptr, ptr %16, align 8, !tbaa !79
  %.not28 = icmp eq ptr %17, null
  br i1 %.not28, label %19, label %18

18:                                               ; preds = %15
  tail call void @free(ptr noundef nonnull %17) #27
  store ptr null, ptr %16, align 8, !tbaa !79
  br label %19

19:                                               ; preds = %15, %18
  %20 = getelementptr inbounds nuw i8, ptr %0, i64 88
  %21 = load ptr, ptr %20, align 8, !tbaa !80
  %.not29 = icmp eq ptr %21, null
  br i1 %.not29, label %23, label %22

22:                                               ; preds = %19
  tail call void @free(ptr noundef nonnull %21) #27
  store ptr null, ptr %20, align 8, !tbaa !80
  br label %23

23:                                               ; preds = %19, %22
  %24 = getelementptr inbounds nuw i8, ptr %0, i64 72
  %25 = load ptr, ptr %24, align 8, !tbaa !81
  %.not30 = icmp eq ptr %25, null
  br i1 %.not30, label %27, label %26

26:                                               ; preds = %23
  tail call void @free(ptr noundef nonnull %25) #27
  store ptr null, ptr %24, align 8, !tbaa !81
  br label %27

27:                                               ; preds = %23, %26
  %28 = getelementptr inbounds nuw i8, ptr %0, i64 80
  %29 = load ptr, ptr %28, align 8, !tbaa !82
  %.not31 = icmp eq ptr %29, null
  br i1 %.not31, label %31, label %30

30:                                               ; preds = %27
  tail call void @free(ptr noundef nonnull %29) #27
  store ptr null, ptr %28, align 8, !tbaa !82
  br label %31

31:                                               ; preds = %27, %30
  %32 = getelementptr inbounds nuw i8, ptr %0, i64 40
  %33 = load ptr, ptr %32, align 8, !tbaa !47
  %.not32 = icmp eq ptr %33, null
  br i1 %.not32, label %35, label %34

34:                                               ; preds = %31
  tail call void @free(ptr noundef nonnull %33) #27
  br label %35

35:                                               ; preds = %31, %34
  tail call void @free(ptr noundef nonnull %0) #27
  ret void
}